; ModuleID = '24/2071.c'
source_filename = "24/2071.c"
target datalayout = "e-m:e-p270:32:32-p271:32:32-p272:64:64-i64:64-f80:128-n8:16:32:64-S128"
target triple = "x86_64-pc-linux-gnu"

; Function Attrs: noinline nounwind uwtable
define dso_local i32 @main() #0 {
  %1 = alloca i32, align 4
  %2 = alloca [20000 x i8], align 16
  %3 = alloca [200 x [401 x i8]], align 16
  %4 = alloca i32, align 4
  %5 = alloca i32, align 4
  %6 = alloca i32, align 4
  %7 = alloca i32, align 4
  %8 = alloca i32, align 4
  %9 = alloca i32, align 4
  %10 = alloca i32, align 4
  %11 = alloca i32, align 4
  %12 = alloca i32, align 4
  store i32 0, i32* %1, align 4
  store i32 0, i32* %4, align 4
  store i32 0, i32* %5, align 4
  %13 = getelementptr inbounds [20000 x i8], [20000 x i8]* %2, i64 0, i64 0
  %14 = call i32 (i8*, ...) bitcast (i32 (...)* @gets to i32 (i8*, ...)*)(i8* %13)
  store i32 0, i32* %6, align 4
  store i32 0, i32* %7, align 4
  store i32 0, i32* %8, align 4
  br label %15

15:                                               ; preds = %47, %0
  %16 = load i32, i32* %8, align 4
  %17 = sext i32 %16 to i64
  %18 = getelementptr inbounds [20000 x i8], [20000 x i8]* %2, i64 0, i64 %17
  %19 = load i8, i8* %18, align 1
  %20 = sext i8 %19 to i32
  %21 = icmp ne i32 %20, 0
  br i1 %21, label %22, label %50

22:                                               ; preds = %15
  %23 = load i32, i32* %8, align 4
  %24 = sext i32 %23 to i64
  %25 = getelementptr inbounds [20000 x i8], [20000 x i8]* %2, i64 0, i64 %24
  %26 = load i8, i8* %25, align 1
  %27 = sext i8 %26 to i32
  %28 = icmp eq i32 %27, 32
  br i1 %28, label %29, label %46

29:                                               ; preds = %22
  %30 = load i32, i32* %8, align 4
  %31 = sext i32 %30 to i64
  %32 = getelementptr inbounds [20000 x i8], [20000 x i8]* %2, i64 0, i64 %31
  store i8 0, i8* %32, align 1
  %33 = load i32, i32* %6, align 4
  %34 = sext i32 %33 to i64
  %35 = getelementptr inbounds [200 x [401 x i8]], [200 x [401 x i8]]* %3, i64 0, i64 %34
  %36 = getelementptr inbounds [401 x i8], [401 x i8]* %35, i64 0, i64 0
  %37 = getelementptr inbounds [20000 x i8], [20000 x i8]* %2, i64 0, i64 0
  %38 = load i32, i32* %7, align 4
  %39 = sext i32 %38 to i64
  %40 = getelementptr inbounds i8, i8* %37, i64 %39
  %41 = call i8* @strcpy(i8* %36, i8* %40) #4
  %42 = load i32, i32* %6, align 4
  %43 = add nsw i32 %42, 1
  store i32 %43, i32* %6, align 4
  %44 = load i32, i32* %8, align 4
  %45 = add nsw i32 %44, 1
  store i32 %45, i32* %7, align 4
  br label %46

46:                                               ; preds = %29, %22
  br label %47

47:                                               ; preds = %46
  %48 = load i32, i32* %8, align 4
  %49 = add nsw i32 %48, 1
  store i32 %49, i32* %8, align 4
  br label %15

50:                                               ; preds = %15
  %51 = load i32, i32* %6, align 4
  %52 = sext i32 %51 to i64
  %53 = getelementptr inbounds [200 x [401 x i8]], [200 x [401 x i8]]* %3, i64 0, i64 %52
  %54 = getelementptr inbounds [401 x i8], [401 x i8]* %53, i64 0, i64 0
  %55 = getelementptr inbounds [20000 x i8], [20000 x i8]* %2, i64 0, i64 0
  %56 = load i32, i32* %7, align 4
  %57 = sext i32 %56 to i64
  %58 = getelementptr inbounds i8, i8* %55, i64 %57
  %59 = call i8* @strcpy(i8* %54, i8* %58) #4
  %60 = load i32, i32* %6, align 4
  %61 = add nsw i32 %60, 1
  store i32 %61, i32* %6, align 4
  %62 = getelementptr inbounds [200 x [401 x i8]], [200 x [401 x i8]]* %3, i64 0, i64 0
  %63 = getelementptr inbounds [401 x i8], [401 x i8]* %62, i64 0, i64 0
  %64 = call i64 @strlen(i8* %63) #5
  %65 = trunc i64 %64 to i32
  store i32 %65, i32* %9, align 4
  %66 = getelementptr inbounds [200 x [401 x i8]], [200 x [401 x i8]]* %3, i64 0, i64 0
  %67 = getelementptr inbounds [401 x i8], [401 x i8]* %66, i64 0, i64 0
  %68 = call i64 @strlen(i8* %67) #5
  %69 = trunc i64 %68 to i32
  store i32 %69, i32* %10, align 4
  store i32 1, i32* %11, align 4
  br label %70

70:                                               ; preds = %95, %50
  %71 = load i32, i32* %11, align 4
  %72 = load i32, i32* %6, align 4
  %73 = icmp slt i32 %71, %72
  br i1 %73, label %74, label %98

74:                                               ; preds = %70
  %75 = load i32, i32* %11, align 4
  %76 = sext i32 %75 to i64
  %77 = getelementptr inbounds [200 x [401 x i8]], [200 x [401 x i8]]* %3, i64 0, i64 %76
  %78 = getelementptr inbounds [401 x i8], [401 x i8]* %77, i64 0, i64 0
  %79 = call i64 @strlen(i8* %78) #5
  %80 = trunc i64 %79 to i32
  store i32 %80, i32* %12, align 4
  %81 = load i32, i32* %12, align 4
  %82 = load i32, i32* %9, align 4
  %83 = icmp sgt i32 %81, %82
  br i1 %83, label %84, label %87

84:                                               ; preds = %74
  %85 = load i32, i32* %12, align 4
  store i32 %85, i32* %9, align 4
  %86 = load i32, i32* %11, align 4
  store i32 %86, i32* %4, align 4
  br label %87

87:                                               ; preds = %84, %74
  %88 = load i32, i32* %12, align 4
  %89 = load i32, i32* %10, align 4
  %90 = icmp slt i32 %88, %89
  br i1 %90, label %91, label %94

91:                                               ; preds = %87
  %92 = load i32, i32* %12, align 4
  store i32 %92, i32* %10, align 4
  %93 = load i32, i32* %11, align 4
  store i32 %93, i32* %5, align 4
  br label %94

94:                                               ; preds = %91, %87
  br label %95

95:                                               ; preds = %94
  %96 = load i32, i32* %11, align 4
  %97 = add nsw i32 %96, 1
  store i32 %97, i32* %11, align 4
  br label %70

98:                                               ; preds = %70
  %99 = load i32, i32* %4, align 4
  %100 = sext i32 %99 to i64
  %101 = getelementptr inbounds [200 x [401 x i8]], [200 x [401 x i8]]* %3, i64 0, i64 %100
  %102 = getelementptr inbounds [401 x i8], [401 x i8]* %101, i64 0, i64 0
  %103 = call i32 @puts(i8* %102)
  %104 = load i32, i32* %5, align 4
  %105 = sext i32 %104 to i64
  %106 = getelementptr inbounds [200 x [401 x i8]], [200 x [401 x i8]]* %3, i64 0, i64 %105
  %107 = getelementptr inbounds [401 x i8], [401 x i8]* %106, i64 0, i64 0
  %108 = call i32 @puts(i8* %107)
  ret i32 0
}

declare dso_local i32 @gets(...) #1

; Function Attrs: nounwind
declare dso_local i8* @strcpy(i8*, i8*) #2

; Function Attrs: nounwind readonly
declare dso_local i64 @strlen(i8*) #3

declare dso_local i32 @puts(i8*) #1


!llvm.module.flags = !{!0}
!llvm.ident = !{!1}

!0 = !{i32 1, !"wchar_size", i32 4}
!1 = !{!"clang version 10.0.0-4ubuntu1 "}
